target datalayout = "e-m:e-p270:32:32-p271:32:32-p272:64:64-i64:64-i128:128-f80:128-n8:16:32:64-S128"
target triple = "x86_64-pc-linux-gnu"

%struct.avifFileType = type { [4 x i8], i32, ptr, i32 }

@.str.8 = private unnamed_addr constant [5 x i8] c"avis\00", align 1
@.str.9 = private unnamed_addr constant [5 x i8] c"avif\00", align 1

; Function Attrs: nounwind uwtable
define internal i32 @avifFileTypeHasBrand(ptr noundef %0, ptr noundef %1) #0 {
  %3 = alloca i32, align 4
  %4 = alloca ptr, align 8
  %5 = alloca ptr, align 8
  %6 = alloca i32, align 4
  %7 = alloca ptr, align 8
  store ptr %0, ptr %4, align 8
  store ptr %1, ptr %5, align 8
  %8 = load ptr, ptr %4, align 8
  %9 = getelementptr inbounds nuw %struct.avifFileType, ptr %8, i32 0, i32 0
  %10 = getelementptr inbounds [4 x i8], ptr %9, i64 0, i64 0
  %11 = load ptr, ptr %5, align 8
  %12 = call i32 @memcmp(ptr noundef %10, ptr noundef %11, i64 noundef 4) #6
  %13 = icmp ne i32 %12, 0
  br i1 %13, label %15, label %14

14:                                               ; preds = %2
  store i32 1, ptr %3, align 4
  br label %40

15:                                               ; preds = %2
  store i32 0, ptr %6, align 4
  br label %16

16:                                               ; preds = %36, %15
  %17 = load i32, ptr %6, align 4
  %18 = load ptr, ptr %4, align 8
  %19 = getelementptr inbounds nuw %struct.avifFileType, ptr %18, i32 0, i32 3
  %20 = load i32, ptr %19, align 8
  %21 = icmp slt i32 %17, %20
  br i1 %21, label %22, label %39

22:                                               ; preds = %16
  %23 = load ptr, ptr %4, align 8
  %24 = getelementptr inbounds nuw %struct.avifFileType, ptr %23, i32 0, i32 2
  %25 = load ptr, ptr %24, align 8
  %26 = load i32, ptr %6, align 4
  %27 = mul nsw i32 4, %26
  %28 = sext i32 %27 to i64
  %29 = getelementptr inbounds i8, ptr %25, i64 %28
  store ptr %29, ptr %7, align 8
  %30 = load ptr, ptr %7, align 8
  %31 = load ptr, ptr %5, align 8
  %32 = call i32 @memcmp(ptr noundef %30, ptr noundef %31, i64 noundef 4) #6
  %33 = icmp ne i32 %32, 0
  br i1 %33, label %35, label %34

34:                                               ; preds = %22
  store i32 1, ptr %3, align 4
  br label %40

35:                                               ; preds = %22
  br label %36

36:                                               ; preds = %35
  %37 = load i32, ptr %6, align 4
  %38 = add nsw i32 %37, 1
  store i32 %38, ptr %6, align 4
  br label %16, !llvm.loop !55

39:                                               ; preds = %16
  store i32 0, ptr %3, align 4
  br label %40

40:                                               ; preds = %39, %34, %14
  %41 = load i32, ptr %3, align 4
  ret i32 %41
}

; Function Attrs: nounwind uwtable
define internal i32 @avifFileTypeIsCompatible(ptr noundef %0) #0 {
  %2 = alloca ptr, align 8
  store ptr %0, ptr %2, align 8
  %3 = load ptr, ptr %2, align 8
  %4 = call i32 @avifFileTypeHasBrand(ptr noundef %3, ptr noundef @.str.9)
  %5 = icmp ne i32 %4, 0
  br i1 %5, label %10, label %6

6:                                                ; preds = %1
  %7 = load ptr, ptr %2, align 8
  %8 = call i32 @avifFileTypeHasBrand(ptr noundef %7, ptr noundef @.str.8)
  %9 = icmp ne i32 %8, 0
  br label %10

10:                                               ; preds = %6, %1
  %11 = phi i1 [ true, %1 ], [ %9, %6 ]
  %12 = zext i1 %11 to i32
  ret i32 %12
}