; Function Attrs: nofree nounwind memory(read, inaccessiblemem: none) uwtable
define internal fastcc range(i32 0, 2) i32 @avifFileTypeIsCompatible(ptr noundef nonnull readonly captures(none) %0) unnamed_addr #3 {
  %bcmp.i = tail call i32 @bcmp(ptr noundef nonnull readonly dereferenceable(4) %0, ptr noundef nonnull dereferenceable(4) @.str.9, i64 4)
  %.not.i = icmp eq i32 %bcmp.i, 0
  br i1 %.not.i, label %avifFileTypeHasBrand.exit, label %.preheader.i

.preheader.i:                                     ; preds = %1
  %2 = getelementptr inbounds nuw i8, ptr %0, i64 16
  %3 = load i32, ptr %2, align 8
  %4 = icmp sgt i32 %3, 0
  br i1 %4, label %.lr.ph.i, label %.loopexit.thread

.lr.ph.i:                                         ; preds = %.preheader.i
  %5 = getelementptr inbounds nuw i8, ptr %0, i64 8
  %6 = load ptr, ptr %5, align 8
  %wide.trip.count.i = zext nneg i32 %3 to i64
  br label %8

7:                                                ; preds = %8
  %indvars.iv.next.i = add nuw nsw i64 %indvars.iv.i, 1
  %exitcond.not.i = icmp eq i64 %indvars.iv.next.i, %wide.trip.count.i
  br i1 %exitcond.not.i, label %.loopexit, label %8, !llvm.loop !6

8:                                                ; preds = %7, %.lr.ph.i
  %indvars.iv.i = phi i64 [ 0, %.lr.ph.i ], [ %indvars.iv.next.i, %7 ]
  %9 = shl nsw i64 %indvars.iv.i, 2
  %10 = getelementptr inbounds nuw i8, ptr %6, i64 %9
  %bcmp10.i = tail call i32 @bcmp(ptr noundef nonnull dereferenceable(4) %10, ptr noundef nonnull dereferenceable(4) @.str.9, i64 4)
  %.not11.i = icmp eq i32 %bcmp10.i, 0
  br i1 %.not11.i, label %avifFileTypeHasBrand.exit, label %7

.loopexit:                                        ; preds = %7
  %bcmp.i2 = tail call i32 @bcmp(ptr noundef nonnull readonly dereferenceable(4) %0, ptr noundef nonnull dereferenceable(4) @.str.8, i64 4)
  %.not.i3 = icmp eq i32 %bcmp.i2, 0
  br i1 %.not.i3, label %avifFileTypeHasBrand.exit, label %.lr.ph.i6

.loopexit.thread:                                 ; preds = %.preheader.i
  %bcmp.i218 = tail call i32 @bcmp(ptr noundef nonnull readonly dereferenceable(4) %0, ptr noundef nonnull dereferenceable(4) @.str.8, i64 4)
  %.not.i319 = icmp eq i32 %bcmp.i218, 0
  br label %avifFileTypeHasBrand.exit

.lr.ph.i6:                                        ; preds = %.loopexit
  %11 = getelementptr inbounds nuw i8, ptr %0, i64 8
  %12 = load ptr, ptr %11, align 8
  %wide.trip.count.i7 = zext nneg i32 %3 to i64
  br label %13

13:                                               ; preds = %13, %.lr.ph.i6
  %indvars.iv.i8 = phi i64 [ 0, %.lr.ph.i6 ], [ %indvars.iv.next.i11, %13 ]
  %14 = shl nsw i64 %indvars.iv.i8, 2
  %15 = getelementptr inbounds nuw i8, ptr %12, i64 %14
  %bcmp10.i9 = tail call i32 @bcmp(ptr noundef nonnull dereferenceable(4) %15, ptr noundef nonnull dereferenceable(4) @.str.8, i64 4)
  %.not11.i10 = icmp eq i32 %bcmp10.i9, 0
  %indvars.iv.next.i11 = add nuw nsw i64 %indvars.iv.i8, 1
  %exitcond.not.i12 = icmp eq i64 %indvars.iv.next.i11, %wide.trip.count.i7
  %or.cond = select i1 %.not11.i10, i1 true, i1 %exitcond.not.i12
  br i1 %or.cond, label %avifFileTypeHasBrand.exit, label %13, !llvm.loop !6

avifFileTypeHasBrand.exit:                        ; preds = %8, %13, %.loopexit.thread, %.loopexit, %1
  %.shrunk = phi i1 [ true, %1 ], [ true, %.loopexit ], [ %.not.i319, %.loopexit.thread ], [ %.not11.i10, %13 ], [ true, %8 ]
  %16 = zext i1 %.shrunk to i32
  ret i32 %16
}